target datalayout = "e-m:e-p270:32:32-p271:32:32-p272:64:64-i64:64-i128:128-f80:128-n8:16:32:64-S128"
target triple = "x86_64-pc-linux-gnu"

%struct.mi_commit_mask_s = type { [8 x i64] }
%struct.mi_segment_s = type { %struct.mi_memid_s, i8, i8, i64, ptr, i64, %struct.mi_commit_mask_s, %struct.mi_commit_mask_s, ptr, i8, i8, i64, i64, i64, i64, ptr, ptr, i64, i64, i32, i64, i64, [513 x %struct.mi_page_s] }
%struct.mi_memid_s = type { %union.anon, i8, i8, i8, i32 }
%union.anon = type { %struct.mi_memid_os_info }
%struct.mi_memid_os_info = type { ptr, i64 }
%struct.mi_page_s = type { i32, i32, i8, i16, i16, %union.mi_page_flags_s, i8, ptr, ptr, i16, i8, i8, i64, ptr, i64, i64, ptr, ptr, [1 x ptr] }
%union.mi_page_flags_s = type { i8 }

; Function Attrs: nounwind uwtable
define hidden void @_mi_segment_huge_page_reset(ptr noundef %0, ptr noundef %1, ptr noundef %2) #0 {
  %4 = alloca ptr, align 8
  %5 = alloca ptr, align 8
  %6 = alloca ptr, align 8
  %7 = alloca i64, align 8
  %8 = alloca ptr, align 8
  store ptr %0, ptr %4, align 8, !tbaa !19
  store ptr %1, ptr %5, align 8, !tbaa !21
  store ptr %2, ptr %6, align 8, !tbaa !93
  %9 = load ptr, ptr %4, align 8, !tbaa !19
  %10 = getelementptr inbounds nuw %struct.mi_segment_s, ptr %9, i32 0, i32 1
  %11 = load i8, ptr %10, align 8, !tbaa !52, !range !33, !noundef !34
  %12 = trunc i8 %11 to i1
  br i1 %12, label %13, label %27

13:                                               ; preds = %3
  call void @llvm.lifetime.start.p0(i64 8, ptr %7) #8
  %14 = load ptr, ptr %6, align 8, !tbaa !93
  %15 = call i64 @mi_usable_size(ptr noundef %14) #9
  store i64 %15, ptr %7, align 8, !tbaa !8
  %16 = load i64, ptr %7, align 8, !tbaa !8
  %17 = icmp ugt i64 %16, 8
  br i1 %17, label %18, label %26

18:                                               ; preds = %13
  %19 = load i64, ptr %7, align 8, !tbaa !8
  %20 = sub i64 %19, 8
  store i64 %20, ptr %7, align 8, !tbaa !8
  call void @llvm.lifetime.start.p0(i64 8, ptr %8) #8
  %21 = load ptr, ptr %6, align 8, !tbaa !93
  %22 = getelementptr inbounds nuw i8, ptr %21, i64 8
  store ptr %22, ptr %8, align 8, !tbaa !23
  %23 = load ptr, ptr %8, align 8, !tbaa !23
  %24 = load i64, ptr %7, align 8, !tbaa !8
  %25 = call zeroext i1 @_mi_os_reset(ptr noundef %23, i64 noundef %24) #9
  call void @llvm.lifetime.end.p0(i64 8, ptr %8) #8
  br label %26

26:                                               ; preds = %18, %13
  call void @llvm.lifetime.end.p0(i64 8, ptr %7) #8
  br label %27

27:                                               ; preds = %26, %3
  ret void
}