; Function Attrs: nounwind uwtable
define hidden void @_mi_segment_huge_page_reset(ptr noundef readonly captures(none) %0, ptr noundef readnone captures(none) %1, ptr noundef %2) local_unnamed_addr #4 {
  %4 = getelementptr inbounds nuw i8, ptr %0, i64 24
  %5 = load i8, ptr %4, align 8, !tbaa !43, !range !30, !noundef !31
  %6 = trunc nuw i8 %5 to i1
  br i1 %6, label %7, label %14

7:                                                ; preds = %3
  %8 = tail call i64 @mi_usable_size(ptr noundef %2) #11
  %9 = icmp ugt i64 %8, 8
  br i1 %9, label %10, label %14

10:                                               ; preds = %7
  %11 = add i64 %8, -8
  %12 = getelementptr inbounds nuw i8, ptr %2, i64 8
  %13 = tail call zeroext i1 @_mi_os_reset(ptr noundef nonnull %12, i64 noundef %11) #11
  br label %14

14:                                               ; preds = %7, %10, %3
  ret void
}